; Function Attrs: nounwind uwtable
define hidden void @SDL_UnlockSurface_REAL(ptr noundef %0) local_unnamed_addr #2 {
  %.not.i = icmp eq ptr %0, null
  br i1 %.not.i, label %SDL_SurfaceValid.exit.thread, label %SDL_SurfaceValid.exit

SDL_SurfaceValid.exit:                            ; preds = %1
  %2 = getelementptr inbounds nuw i8, ptr %0, i64 40
  %3 = load ptr, ptr %2, align 8
  %4 = icmp eq ptr %3, @SDL_surface_magic
  br i1 %4, label %5, label %SDL_SurfaceValid.exit.thread

5:                                                ; preds = %SDL_SurfaceValid.exit
  %6 = getelementptr inbounds nuw i8, ptr %0, i64 96
  %7 = load i32, ptr %6, align 8
  %.not = icmp eq i32 %7, 0
  br i1 %.not, label %SDL_SurfaceValid.exit.thread, label %8

8:                                                ; preds = %5
  %9 = add nsw i32 %7, -1
  store i32 %9, ptr %6, align 8
  %10 = icmp sgt i32 %7, 1
  br i1 %10, label %SDL_SurfaceValid.exit.thread, label %11

11:                                               ; preds = %8
  %12 = getelementptr inbounds nuw i8, ptr %0, i64 48
  %13 = load i32, ptr %12, align 8
  %14 = and i32 %13, 4
  %.not7 = icmp eq i32 %14, 0
  br i1 %.not7, label %18, label %15

15:                                               ; preds = %11
  %16 = and i32 %13, -5
  store i32 %16, ptr %12, align 8
  %17 = tail call zeroext i1 @SDL_RLESurface(ptr noundef nonnull %0) #10
  br label %18

18:                                               ; preds = %15, %11
  %19 = load i32, ptr %0, align 8
  %20 = and i32 %19, -5
  store i32 %20, ptr %0, align 8
  br label %SDL_SurfaceValid.exit.thread

SDL_SurfaceValid.exit.thread:                     ; preds = %1, %5, %8, %SDL_SurfaceValid.exit, %18
  ret void
}